; Function Attrs: mustprogress uwtable
define void @_ZN5Ipopt13TripletHelper11FillValues_EiRKNS_15TransposeMatrixEPd(i32 noundef %0, ptr noundef nonnull readonly align 8 captures(none) dereferenceable(80) %1, ptr noundef %2) local_unnamed_addr #0 align 2 personality ptr @__gxx_personality_v0 {
  %4 = getelementptr inbounds nuw i8, ptr %1, i64 72
  %5 = load ptr, ptr %4, align 8, !tbaa !102, !noalias !302
  %.not.i.i.i.i = icmp eq ptr %5, null
  br i1 %.not.i.i.i.i, label %_ZNK5Ipopt15TransposeMatrix10OrigMatrixEv.exit, label %6

6:                                                ; preds = %3
  %7 = getelementptr inbounds nuw i8, ptr %5, i64 8
  %8 = load i32, ptr %7, align 8, !tbaa !42, !noalias !302
  %9 = add nsw i32 %8, 1
  store i32 %9, ptr %7, align 8, !tbaa !42, !noalias !302
  br label %_ZNK5Ipopt15TransposeMatrix10OrigMatrixEv.exit

_ZNK5Ipopt15TransposeMatrix10OrigMatrixEv.exit:   ; preds = %3, %6
  invoke void @_ZN5Ipopt13TripletHelper10FillValuesEiRKNS_6MatrixEPd(i32 noundef %0, ptr noundef nonnull align 8 dereferenceable(69) %5, ptr noundef %2)
          to label %10 unwind label %19

10:                                               ; preds = %_ZNK5Ipopt15TransposeMatrix10OrigMatrixEv.exit
  %11 = getelementptr inbounds nuw i8, ptr %5, i64 8
  %12 = load i32, ptr %11, align 8, !tbaa !42
  %13 = add nsw i32 %12, -1
  store i32 %13, ptr %11, align 8, !tbaa !42
  %14 = icmp eq i32 %13, 0
  br i1 %14, label %15, label %_ZN5Ipopt8SmartPtrIKNS_6MatrixEED2Ev.exit

15:                                               ; preds = %10
  %16 = load ptr, ptr %5, align 8, !tbaa !43
  %17 = getelementptr inbounds nuw i8, ptr %16, i64 8
  %18 = load ptr, ptr %17, align 8
  tail call void %18(ptr noundef nonnull align 8 dereferenceable(69) %5) #17
  br label %_ZN5Ipopt8SmartPtrIKNS_6MatrixEED2Ev.exit

_ZN5Ipopt8SmartPtrIKNS_6MatrixEED2Ev.exit:        ; preds = %10, %15
  ret void

19:                                               ; preds = %_ZNK5Ipopt15TransposeMatrix10OrigMatrixEv.exit
  %20 = landingpad { ptr, i32 }
          cleanup
  %21 = getelementptr inbounds nuw i8, ptr %5, i64 8
  %22 = load i32, ptr %21, align 8, !tbaa !42
  %23 = add nsw i32 %22, -1
  store i32 %23, ptr %21, align 8, !tbaa !42
  %24 = icmp eq i32 %23, 0
  br i1 %24, label %25, label %_ZN5Ipopt8SmartPtrIKNS_6MatrixEED2Ev.exit5

25:                                               ; preds = %19
  %26 = load ptr, ptr %5, align 8, !tbaa !43
  %27 = getelementptr inbounds nuw i8, ptr %26, i64 8
  %28 = load ptr, ptr %27, align 8
  tail call void %28(ptr noundef nonnull align 8 dereferenceable(69) %5) #17
  br label %_ZN5Ipopt8SmartPtrIKNS_6MatrixEED2Ev.exit5

_ZN5Ipopt8SmartPtrIKNS_6MatrixEED2Ev.exit5:       ; preds = %19, %25
  resume { ptr, i32 } %20
}